; Function Attrs: nounwind uwtable
define dso_local void @bb_g_job_set_tres_cnt(ptr noundef %0, ptr noundef %1, i1 noundef zeroext %2) local_unnamed_addr #0 {
  %4 = alloca %struct.timeval, align 8
  %5 = alloca %struct.timeval, align 8
  %6 = alloca [20 x i8], align 16
  %7 = alloca i64, align 8
  call void @llvm.lifetime.start.p0(i64 16, ptr nonnull %4) #11
  call void @llvm.lifetime.start.p0(i64 16, ptr nonnull %5) #11
  call void @llvm.lifetime.start.p0(i64 20, ptr nonnull %6) #11
  call void @llvm.memset.p0.i64(ptr noundef nonnull align 16 dereferenceable(20) %6, i8 0, i64 20, i1 false)
  call void @llvm.lifetime.start.p0(i64 8, ptr nonnull %7) #11
  %8 = call i32 @gettimeofday(ptr noundef nonnull %4, ptr noundef null) #11
  %9 = tail call i32 @pthread_mutex_lock(ptr noundef nonnull @g_context_lock) #11
  %.not = icmp eq i32 %9, 0
  br i1 %.not, label %.preheader, label %12

.preheader:                                       ; preds = %3
  %10 = load i32, ptr @g_context_cnt, align 4
  %11 = icmp sgt i32 %10, 0
  br i1 %11, label %.lr.ph, label %._crit_edge

12:                                               ; preds = %3
  %13 = tail call ptr @__errno_location() #12
  store i32 %9, ptr %13, align 4
  tail call void (ptr, ...) @fatal_abort(ptr noundef nonnull @.str.1, ptr noundef nonnull @__func__.bb_g_job_set_tres_cnt) #13
  unreachable

.lr.ph:                                           ; preds = %.preheader, %.lr.ph
  %indvars.iv = phi i64 [ %indvars.iv.next, %.lr.ph ], [ 0, %.preheader ]
  %14 = load ptr, ptr @ops, align 8
  %15 = getelementptr inbounds nuw %struct.slurm_bb_ops, ptr %14, i64 %indvars.iv, i32 8
  %16 = load ptr, ptr %15, align 8
  tail call void %16(ptr noundef %0, ptr noundef %1, i1 noundef zeroext %2) #11
  %indvars.iv.next = add nuw nsw i64 %indvars.iv, 1
  %17 = load i32, ptr @g_context_cnt, align 4
  %18 = sext i32 %17 to i64
  %19 = icmp slt i64 %indvars.iv.next, %18
  br i1 %19, label %.lr.ph, label %._crit_edge, !llvm.loop !19

._crit_edge:                                      ; preds = %.lr.ph, %.preheader
  %20 = tail call i32 @pthread_mutex_unlock(ptr noundef nonnull @g_context_lock) #11
  %.not11 = icmp eq i32 %20, 0
  br i1 %.not11, label %23, label %21

21:                                               ; preds = %._crit_edge
  %22 = tail call ptr @__errno_location() #12
  store i32 %20, ptr %22, align 4
  tail call void (ptr, ...) @fatal_abort(ptr noundef nonnull @.str.8, ptr noundef nonnull @__func__.bb_g_job_set_tres_cnt) #13
  unreachable

23:                                               ; preds = %._crit_edge
  %24 = call i32 @gettimeofday(ptr noundef nonnull %5, ptr noundef null) #11
  call void @slurm_diff_tv_str(ptr noundef nonnull %4, ptr noundef nonnull %5, ptr noundef nonnull %6, i32 noundef 20, ptr noundef nonnull @__func__.bb_g_job_set_tres_cnt, i64 noundef 0, ptr noundef nonnull %7) #11
  call void @llvm.lifetime.end.p0(i64 8, ptr nonnull %7) #11
  call void @llvm.lifetime.end.p0(i64 20, ptr nonnull %6) #11
  call void @llvm.lifetime.end.p0(i64 16, ptr nonnull %5) #11
  call void @llvm.lifetime.end.p0(i64 16, ptr nonnull %4) #11
  ret void
}